target datalayout = "e-m:e-p270:32:32-p271:32:32-p272:64:64-i64:64-i128:128-f80:128-n8:16:32:64-S128"
target triple = "x86_64-pc-linux-gnu"

%"class.nlsat::atom" = type { i32, i32, i32, i32 }
%"class.nlsat::root_atom" = type { %"class.nlsat::atom", i32, i32, ptr }

; Function Attrs: mustprogress nounwind uwtable
define linkonce_odr hidden void @_ZN5nlsat4atomC2ENS0_4kindEj(ptr noundef nonnull align 4 dereferenceable(16) %0, i32 noundef %1, i32 noundef %2) unnamed_addr #4 comdat align 2 {
  %4 = alloca ptr, align 8
  %5 = alloca i32, align 4
  %6 = alloca i32, align 4
  store ptr %0, ptr %4, align 8, !tbaa !32
  store i32 %1, ptr %5, align 4, !tbaa !18
  store i32 %2, ptr %6, align 4, !tbaa !8
  %7 = load ptr, ptr %4, align 8
  %8 = getelementptr inbounds nuw %"class.nlsat::atom", ptr %7, i32 0, i32 0
  %9 = load i32, ptr %5, align 4, !tbaa !18
  store i32 %9, ptr %8, align 4, !tbaa !34
  %10 = getelementptr inbounds nuw %"class.nlsat::atom", ptr %7, i32 0, i32 1
  store i32 0, ptr %10, align 4, !tbaa !35
  %11 = getelementptr inbounds nuw %"class.nlsat::atom", ptr %7, i32 0, i32 2
  store i32 2147483647, ptr %11, align 4, !tbaa !36
  %12 = getelementptr inbounds nuw %"class.nlsat::atom", ptr %7, i32 0, i32 3
  %13 = load i32, ptr %6, align 4, !tbaa !8
  store i32 %13, ptr %12, align 4, !tbaa !37
  ret void
}

; Function Attrs: mustprogress uwtable
define hidden void @_ZN5nlsat9root_atomC2ENS_4atom4kindEjjPN10polynomial10polynomialE(ptr noundef nonnull align 8 dereferenceable(32) %0, i32 noundef %1, i32 noundef %2, i32 noundef %3, ptr noundef %4) unnamed_addr #6 align 2 {
  %6 = alloca ptr, align 8
  %7 = alloca i32, align 4
  %8 = alloca i32, align 4
  %9 = alloca i32, align 4
  %10 = alloca ptr, align 8
  store ptr %0, ptr %6, align 8, !tbaa !48
  store i32 %1, ptr %7, align 4, !tbaa !18
  store i32 %2, ptr %8, align 4, !tbaa !8
  store i32 %3, ptr %9, align 4, !tbaa !8
  store ptr %4, ptr %10, align 8, !tbaa !28
  %11 = load ptr, ptr %6, align 8
  %12 = load i32, ptr %7, align 4, !tbaa !18
  %13 = load i32, ptr %8, align 4, !tbaa !8
  call void @_ZN5nlsat4atomC2ENS0_4kindEj(ptr noundef nonnull align 4 dereferenceable(16) %11, i32 noundef %12, i32 noundef %13)
  %14 = getelementptr inbounds nuw %"class.nlsat::root_atom", ptr %11, i32 0, i32 1
  %15 = load i32, ptr %8, align 4, !tbaa !8
  store i32 %15, ptr %14, align 8, !tbaa !50
  %16 = getelementptr inbounds nuw %"class.nlsat::root_atom", ptr %11, i32 0, i32 2
  %17 = load i32, ptr %9, align 4, !tbaa !8
  store i32 %17, ptr %16, align 4, !tbaa !52
  %18 = getelementptr inbounds nuw %"class.nlsat::root_atom", ptr %11, i32 0, i32 3
  %19 = load ptr, ptr %10, align 8, !tbaa !28
  store ptr %19, ptr %18, align 8, !tbaa !53
  ret void
}