; Function Attrs: mustprogress nofree norecurse nosync nounwind willreturn memory(argmem: write) uwtable
define hidden void @_ZN5nlsat9root_atomC2ENS_4atom4kindEjjPN10polynomial10polynomialE(ptr noundef nonnull writeonly align 8 captures(none) dereferenceable(32) initializes((0, 32)) %0, i32 noundef %1, i32 noundef %2, i32 noundef %3, ptr noundef %4) unnamed_addr #7 align 2 {
  store i32 %1, ptr %0, align 8, !tbaa !3
  %6 = getelementptr inbounds nuw i8, ptr %0, i64 4
  store i32 0, ptr %6, align 4, !tbaa !9
  %7 = getelementptr inbounds nuw i8, ptr %0, i64 8
  store i32 2147483647, ptr %7, align 8, !tbaa !10
  %8 = getelementptr inbounds nuw i8, ptr %0, i64 12
  store i32 %2, ptr %8, align 4, !tbaa !11
  %9 = getelementptr inbounds nuw i8, ptr %0, i64 16
  store i32 %2, ptr %9, align 8, !tbaa !25
  %10 = getelementptr inbounds nuw i8, ptr %0, i64 20
  store i32 %3, ptr %10, align 4, !tbaa !27
  %11 = getelementptr inbounds nuw i8, ptr %0, i64 24
  store ptr %4, ptr %11, align 8, !tbaa !28
  ret void
}